target datalayout = "e-m:e-p270:32:32-p271:32:32-p272:64:64-i64:64-i128:128-f80:128-n8:16:32:64-S128"
target triple = "x86_64-unknown-linux-gnu"

%"class.smt::cg_table" = type { ptr, i8, %class.ptr_vector.0, %class.obj_map }
%class.ptr_vector.0 = type { %class.vector.1 }
%class.vector.1 = type { ptr }
%class.obj_map = type { %class.core_hashtable }
%class.core_hashtable = type <{ ptr, i32, i32, i32, [4 x i8] }>
%struct.obj_hash = type { i8 }
%struct.default_eq = type { i8 }
%"struct.obj_map<func_decl, unsigned int>::key_data" = type <{ ptr, i32, [4 x i8] }>
%"class.obj_map<func_decl, unsigned int>::obj_map_entry" = type { %"struct.obj_map<func_decl, unsigned int>::key_data" }

; Function Attrs: mustprogress nounwind uwtable
define linkonce_odr hidden void @_ZN7obj_mapI9func_decljE8key_dataC2Ev(ptr noundef nonnull align 8 dereferenceable(12) %this) unnamed_addr #4 comdat align 2 {
entry:
  %this.addr = alloca ptr, align 8
  store ptr %this, ptr %this.addr, align 8
  %this1 = load ptr, ptr %this.addr, align 8
  %m_key = getelementptr inbounds %"struct.obj_map<func_decl, unsigned int>::key_data", ptr %this1, i32 0, i32 0
  store ptr null, ptr %m_key, align 8
  %m_value = getelementptr inbounds %"struct.obj_map<func_decl, unsigned int>::key_data", ptr %this1, i32 0, i32 1
  store i32 0, ptr %m_value, align 8
  ret void
}

; Function Attrs: mustprogress uwtable
define linkonce_odr hidden void @_ZN7obj_mapI9func_decljE13obj_map_entryC2Ev(ptr noundef nonnull align 8 dereferenceable(16) %this) unnamed_addr #5 comdat align 2 {
entry:
  %this.addr = alloca ptr, align 8
  store ptr %this, ptr %this.addr, align 8
  %this1 = load ptr, ptr %this.addr, align 8
  %m_data = getelementptr inbounds %"class.obj_map<func_decl, unsigned int>::obj_map_entry", ptr %this1, i32 0, i32 0
  call void @_ZN7obj_mapI9func_decljE8key_dataC2Ev(ptr noundef nonnull align 8 dereferenceable(12) %m_data)
  ret void
}

; Function Attrs: mustprogress uwtable
define linkonce_odr hidden noalias noundef ptr @_Z10alloc_vectIN7obj_mapI9func_decljE13obj_map_entryEEPT_j(i32 noundef %sz) #5 comdat {
entry:
  %sz.addr = alloca i32, align 4
  %r = alloca ptr, align 8
  %curr = alloca ptr, align 8
  %i = alloca i32, align 4
  store i32 %sz, ptr %sz.addr, align 4
  %0 = load i32, ptr %sz.addr, align 4
  %conv = zext i32 %0 to i64
  %mul = mul i64 16, %conv
  %call = call noalias noundef ptr @_ZN6memory8allocateEm(i64 noundef %mul)
  store ptr %call, ptr %r, align 8
  %1 = load ptr, ptr %r, align 8
  store ptr %1, ptr %curr, align 8
  store i32 0, ptr %i, align 4
  br label %for.cond

for.cond:                                         ; preds = %for.inc, %entry
  %2 = load i32, ptr %i, align 4
  %3 = load i32, ptr %sz.addr, align 4
  %cmp = icmp ult i32 %2, %3
  br i1 %cmp, label %for.body, label %for.end

for.body:                                         ; preds = %for.cond
  %4 = load ptr, ptr %curr, align 8
  call void @llvm.memset.p0.i64(ptr align 8 %4, i8 0, i64 16, i1 false)
  call void @_ZN7obj_mapI9func_decljE13obj_map_entryC2Ev(ptr noundef nonnull align 8 dereferenceable(16) %4)
  br label %for.inc

for.inc:                                          ; preds = %for.body
  %5 = load i32, ptr %i, align 4
  %inc = add i32 %5, 1
  store i32 %inc, ptr %i, align 4
  %6 = load ptr, ptr %curr, align 8
  %incdec.ptr = getelementptr inbounds %"class.obj_map<func_decl, unsigned int>::obj_map_entry", ptr %6, i32 1
  store ptr %incdec.ptr, ptr %curr, align 8
  br label %for.cond, !llvm.loop !16

for.end:                                          ; preds = %for.cond
  %7 = load ptr, ptr %r, align 8
  ret ptr %7
}

; Function Attrs: mustprogress uwtable
define linkonce_odr hidden noundef ptr @_ZN14core_hashtableIN7obj_mapI9func_decljE13obj_map_entryE8obj_hashINS2_8key_dataEE10default_eqIS5_EE11alloc_tableEj(ptr noundef nonnull align 8 dereferenceable(20) %this, i32 noundef %size) #5 comdat align 2 {
entry:
  %this.addr = alloca ptr, align 8
  %size.addr = alloca i32, align 4
  %entries = alloca ptr, align 8
  store ptr %this, ptr %this.addr, align 8
  store i32 %size, ptr %size.addr, align 4
  %0 = load i32, ptr %size.addr, align 4
  %call = call noalias noundef ptr @_Z10alloc_vectIN7obj_mapI9func_decljE13obj_map_entryEEPT_j(i32 noundef %0)
  store ptr %call, ptr %entries, align 8
  %1 = load ptr, ptr %entries, align 8
  ret ptr %1
}

; Function Attrs: mustprogress uwtable
define linkonce_odr hidden void @_ZN14core_hashtableIN7obj_mapI9func_decljE13obj_map_entryE8obj_hashINS2_8key_dataEE10default_eqIS5_EEC2EjRKS6_RKS8_(ptr noundef nonnull align 8 dereferenceable(20) %this, i32 noundef %initial_capacity, ptr noundef nonnull align 1 dereferenceable(1) %h, ptr noundef nonnull align 1 dereferenceable(1) %e) unnamed_addr #5 comdat align 2 {
entry:
  %this.addr = alloca ptr, align 8
  %initial_capacity.addr = alloca i32, align 4
  %h.addr = alloca ptr, align 8
  %e.addr = alloca ptr, align 8
  store ptr %this, ptr %this.addr, align 8
  store i32 %initial_capacity, ptr %initial_capacity.addr, align 4
  store ptr %h, ptr %h.addr, align 8
  store ptr %e, ptr %e.addr, align 8
  %this1 = load ptr, ptr %this.addr, align 8
  %0 = load i32, ptr %initial_capacity.addr, align 4
  %call = call noundef ptr @_ZN14core_hashtableIN7obj_mapI9func_decljE13obj_map_entryE8obj_hashINS2_8key_dataEE10default_eqIS5_EE11alloc_tableEj(ptr noundef nonnull align 8 dereferenceable(20) %this1, i32 noundef %0)
  %m_table = getelementptr inbounds %class.core_hashtable, ptr %this1, i32 0, i32 0
  store ptr %call, ptr %m_table, align 8
  %1 = load i32, ptr %initial_capacity.addr, align 4
  %m_capacity = getelementptr inbounds %class.core_hashtable, ptr %this1, i32 0, i32 1
  store i32 %1, ptr %m_capacity, align 8
  %m_size = getelementptr inbounds %class.core_hashtable, ptr %this1, i32 0, i32 2
  store i32 0, ptr %m_size, align 4
  %m_num_deleted = getelementptr inbounds %class.core_hashtable, ptr %this1, i32 0, i32 3
  store i32 0, ptr %m_num_deleted, align 8
  ret void
}

; Function Attrs: mustprogress nounwind uwtable
define linkonce_odr hidden void @_ZN6vectorIPvLb0EjEC2Ev(ptr noundef nonnull align 8 dereferenceable(8) %this) unnamed_addr #4 comdat align 2 {
entry:
  %this.addr = alloca ptr, align 8
  store ptr %this, ptr %this.addr, align 8
  %this1 = load ptr, ptr %this.addr, align 8
  %m_data = getelementptr inbounds %class.vector.1, ptr %this1, i32 0, i32 0
  store ptr null, ptr %m_data, align 8
  ret void
}

; Function Attrs: mustprogress uwtable
define linkonce_odr hidden void @_ZN7obj_mapI9func_decljEC2Ev(ptr noundef nonnull align 8 dereferenceable(24) %this) unnamed_addr #5 comdat align 2 {
entry:
  %this.addr = alloca ptr, align 8
  %ref.tmp = alloca %struct.obj_hash, align 1
  %ref.tmp2 = alloca %struct.default_eq, align 1
  store ptr %this, ptr %this.addr, align 8
  %this1 = load ptr, ptr %this.addr, align 8
  %m_table = getelementptr inbounds %class.obj_map, ptr %this1, i32 0, i32 0
  call void @_ZN14core_hashtableIN7obj_mapI9func_decljE13obj_map_entryE8obj_hashINS2_8key_dataEE10default_eqIS5_EEC2EjRKS6_RKS8_(ptr noundef nonnull align 8 dereferenceable(20) %m_table, i32 noundef 8, ptr noundef nonnull align 1 dereferenceable(1) %ref.tmp, ptr noundef nonnull align 1 dereferenceable(1) %ref.tmp2)
  ret void
}

; Function Attrs: mustprogress nounwind uwtable
define linkonce_odr hidden void @_ZN10ptr_vectorIvEC2Ev(ptr noundef nonnull align 8 dereferenceable(8) %this) unnamed_addr #4 comdat align 2 {
entry:
  %this.addr = alloca ptr, align 8
  store ptr %this, ptr %this.addr, align 8
  %this1 = load ptr, ptr %this.addr, align 8
  %0 = getelementptr inbounds i8, ptr %this1, i64 0
  call void @llvm.memset.p0.i64(ptr align 8 %0, i8 0, i64 8, i1 false)
  call void @_ZN6vectorIPvLb0EjEC2Ev(ptr noundef nonnull align 8 dereferenceable(8) %this1) #3
  ret void
}

; Function Attrs: mustprogress uwtable
define hidden void @_ZN3smt8cg_tableC2ER11ast_manager(ptr noundef nonnull align 8 dereferenceable(48) %this, ptr noundef nonnull align 8 dereferenceable(976) %m) unnamed_addr #5 align 2 personality ptr @__gxx_personality_v0 {
entry:
  %this.addr = alloca ptr, align 8
  %m.addr = alloca ptr, align 8
  %exn.slot = alloca ptr, align 8
  %ehselector.slot = alloca i32, align 4
  store ptr %this, ptr %this.addr, align 8
  store ptr %m, ptr %m.addr, align 8
  %this1 = load ptr, ptr %this.addr, align 8
  %m_manager = getelementptr inbounds %"class.smt::cg_table", ptr %this1, i32 0, i32 0
  %0 = load ptr, ptr %m.addr, align 8
  store ptr %0, ptr %m_manager, align 8
  %m_tables = getelementptr inbounds %"class.smt::cg_table", ptr %this1, i32 0, i32 2
  call void @_ZN10ptr_vectorIvEC2Ev(ptr noundef nonnull align 8 dereferenceable(8) %m_tables)
  %m_func_decl2id = getelementptr inbounds %"class.smt::cg_table", ptr %this1, i32 0, i32 3
  invoke void @_ZN7obj_mapI9func_decljEC2Ev(ptr noundef nonnull align 8 dereferenceable(24) %m_func_decl2id)
          to label %invoke.cont unwind label %lpad

invoke.cont:                                      ; preds = %entry
  ret void

lpad:                                             ; preds = %entry
  %1 = landingpad { ptr, i32 }
          cleanup
  %2 = extractvalue { ptr, i32 } %1, 0
  store ptr %2, ptr %exn.slot, align 8
  %3 = extractvalue { ptr, i32 } %1, 1
  store i32 %3, ptr %ehselector.slot, align 4
  call void @_ZN10ptr_vectorIvED2Ev(ptr noundef nonnull align 8 dereferenceable(8) %m_tables) #3
  br label %eh.resume

eh.resume:                                        ; preds = %lpad
  %exn = load ptr, ptr %exn.slot, align 8
  %sel = load i32, ptr %ehselector.slot, align 4
  %lpad.val = insertvalue { ptr, i32 } poison, ptr %exn, 0
  %lpad.val2 = insertvalue { ptr, i32 } %lpad.val, i32 %sel, 1
  resume { ptr, i32 } %lpad.val2
}