; Function Attrs: mustprogress uwtable
define hidden void @_ZN3smt8cg_tableC2ER11ast_manager(ptr noundef nonnull align 8 dereferenceable(48) %this, ptr noundef nonnull align 8 dereferenceable(976) %m) unnamed_addr #4 align 2 personality ptr @__gxx_personality_v0 {
entry:
  store ptr %m, ptr %this, align 8
  %m_tables = getelementptr inbounds i8, ptr %this, i64 16
  store ptr null, ptr %m_tables, align 8
  %call.i.i.i.i1 = invoke noalias noundef ptr @_ZN6memory8allocateEm(i64 noundef 128)
          to label %invoke.cont unwind label %lpad

invoke.cont:                                      ; preds = %entry
  %m_func_decl2id = getelementptr inbounds i8, ptr %this, i64 24
  tail call void @llvm.memset.p0.i64(ptr noundef nonnull align 8 dereferenceable(128) %call.i.i.i.i1, i8 0, i64 128, i1 false)
  store ptr %call.i.i.i.i1, ptr %m_func_decl2id, align 8
  %m_capacity.i.i = getelementptr inbounds i8, ptr %this, i64 32
  store i32 8, ptr %m_capacity.i.i, align 8
  %m_size.i.i = getelementptr inbounds i8, ptr %this, i64 36
  store i32 0, ptr %m_size.i.i, align 4
  %m_num_deleted.i.i = getelementptr inbounds i8, ptr %this, i64 40
  store i32 0, ptr %m_num_deleted.i.i, align 8
  ret void

lpad:                                             ; preds = %entry
  %0 = landingpad { ptr, i32 }
          cleanup
  tail call void @_ZN10ptr_vectorIvED2Ev(ptr noundef nonnull align 8 dereferenceable(8) %m_tables) #16
  resume { ptr, i32 } %0
}